; Function Attrs: nounwind sspstrong uwtable
define dso_local i64 @rb_reg_nth_match(i32 noundef %0, i64 noundef %1) local_unnamed_addr #2 {
  %3 = icmp eq i64 %1, 4
  br i1 %3, label %33, label %4

4:                                                ; preds = %2
  %5 = inttoptr i64 %1 to ptr
  %6 = getelementptr inbounds nuw i8, ptr %5, i64 24
  %7 = load i64, ptr %6, align 8, !tbaa !31
  %.not.i = icmp eq i64 %7, 0
  br i1 %.not.i, label %8, label %match_check.exit

8:                                                ; preds = %4
  %9 = load i64, ptr @rb_eTypeError, align 8, !tbaa !18
  tail call void (i64, ptr, ...) @rb_raise(i64 noundef %9, ptr noundef nonnull @.str.76) #30
  unreachable

match_check.exit:                                 ; preds = %4
  %10 = getelementptr i8, ptr %5, i64 36
  %11 = load i32, ptr %10, align 4, !tbaa !40
  %.not = icmp slt i32 %0, %11
  br i1 %.not, label %12, label %33

12:                                               ; preds = %match_check.exit
  %13 = icmp slt i32 %0, 0
  br i1 %13, label %14, label %17

14:                                               ; preds = %12
  %15 = add i32 %11, %0
  %16 = icmp slt i32 %15, 1
  br i1 %16, label %33, label %17

17:                                               ; preds = %14, %12
  %.020 = phi i32 [ %15, %14 ], [ %0, %12 ]
  %18 = getelementptr i8, ptr %5, i64 40
  %19 = load ptr, ptr %18, align 8, !tbaa !92
  %20 = zext nneg i32 %.020 to i64
  %21 = getelementptr i64, ptr %19, i64 %20
  %22 = load i64, ptr %21, align 8, !tbaa !18
  %23 = icmp eq i64 %22, -1
  br i1 %23, label %33, label %24

24:                                               ; preds = %17
  %25 = getelementptr i8, ptr %5, i64 48
  %26 = load ptr, ptr %25, align 8, !tbaa !93
  %27 = getelementptr i64, ptr %26, i64 %20
  %28 = load i64, ptr %27, align 8, !tbaa !18
  %29 = sub i64 %28, %22
  %30 = getelementptr inbounds nuw i8, ptr %5, i64 16
  %31 = load i64, ptr %30, align 8, !tbaa !94
  %32 = tail call i64 @rb_str_subseq(i64 noundef %31, i64 noundef %22, i64 noundef %29) #29
  br label %33

33:                                               ; preds = %17, %14, %match_check.exit, %2, %24
  %.0 = phi i64 [ %32, %24 ], [ 4, %2 ], [ 4, %match_check.exit ], [ 4, %14 ], [ 4, %17 ]
  ret i64 %.0
}